target datalayout = "e-m:e-p270:32:32-p271:32:32-p272:64:64-i64:64-i128:128-f80:128-n8:16:32:64-S128"
target triple = "x86_64-pc-linux-gnu"

%struct.Vec_Int_t_ = type { i32, i32, ptr }
%struct.Gia_Man_t_ = type { ptr, ptr, i32, i32, i32, i32, ptr, ptr, i32, i32, i32, ptr, ptr, %struct.Vec_Int_t_, %struct.Vec_Int_t_, i32, i32, i32, %struct.Vec_Int_t_, ptr, ptr, ptr, i32, i32, i32, i32, ptr, ptr, ptr, ptr, ptr, i32, i32, ptr, i32, ptr, ptr, ptr, ptr, ptr, ptr, ptr, ptr, ptr, ptr, ptr, ptr, ptr, ptr, ptr, ptr, ptr, ptr, %struct.Vec_Int_t_, %struct.Vec_Int_t_, ptr, ptr, ptr, ptr, ptr, ptr, ptr, ptr, ptr, ptr, ptr, ptr, ptr, ptr, ptr, ptr, ptr, ptr, ptr, ptr, ptr, i32, float, float, ptr, ptr, i32, ptr, ptr, ptr, ptr, ptr, ptr, ptr, ptr, ptr, ptr, ptr, ptr, ptr, ptr, ptr, i64, i64, ptr, ptr, i32, i32, i32, i32, i32, i32, i32, i32, i32, i32, i32, i32, ptr, ptr, ptr, ptr, ptr, ptr, ptr, ptr, i32, i32, i32, ptr, i32, i32, ptr, ptr, ptr, ptr, ptr, ptr, i32, i32, ptr, %struct.Vec_Int_t_, %struct.Vec_Int_t_, %struct.Vec_Int_t_, ptr, ptr, ptr, i32, i32, i32, i32, ptr, ptr, ptr, ptr, ptr }

@.str.13 = private unnamed_addr constant [6 x i8] c"muxes\00", align 1

; Function Attrs: inlinehint nounwind uwtable
define internal ptr @Abc_UtilStrsav(ptr noundef %0) #4 {
  %2 = alloca ptr, align 8
  store ptr %0, ptr %2, align 8, !tbaa !64
  %3 = load ptr, ptr %2, align 8, !tbaa !64
  %4 = icmp ne ptr %3, null
  br i1 %4, label %5, label %13

5:                                                ; preds = %1
  %6 = load ptr, ptr %2, align 8, !tbaa !64
  %7 = call i64 @strlen(ptr noundef %6) #17
  %8 = add i64 %7, 1
  %9 = mul i64 1, %8
  %10 = call noalias ptr @malloc(i64 noundef %9) #15
  %11 = load ptr, ptr %2, align 8, !tbaa !64
  %12 = call ptr @strcpy(ptr noundef %10, ptr noundef %11) #13
  br label %14

13:                                               ; preds = %1
  br label %14

14:                                               ; preds = %13, %5
  %15 = phi ptr [ %12, %5 ], [ null, %13 ]
  ret ptr %15
}

; Function Attrs: inlinehint nounwind uwtable
define internal i32 @Abc_TtWordNum(i32 noundef %0) #4 {
  %2 = alloca i32, align 4
  store i32 %0, ptr %2, align 4, !tbaa !9
  %3 = load i32, ptr %2, align 4, !tbaa !9
  %4 = icmp sle i32 %3, 6
  br i1 %4, label %5, label %6

5:                                                ; preds = %1
  br label %10

6:                                                ; preds = %1
  %7 = load i32, ptr %2, align 4, !tbaa !9
  %8 = sub nsw i32 %7, 6
  %9 = shl i32 1, %8
  br label %10

10:                                               ; preds = %6, %5
  %11 = phi i32 [ 1, %5 ], [ %9, %6 ]
  ret i32 %11
}

; Function Attrs: nounwind uwtable
define ptr @Gia_ManBuildMuxesTest(ptr noundef %0, i32 noundef %1, i32 noundef %2, ptr noundef %3) #0 {
  %5 = alloca ptr, align 8
  %6 = alloca i32, align 4
  %7 = alloca i32, align 4
  %8 = alloca ptr, align 8
  %9 = alloca ptr, align 8
  %10 = alloca ptr, align 8
  %11 = alloca i32, align 4
  %12 = alloca i32, align 4
  store ptr %0, ptr %5, align 8, !tbaa !12
  store i32 %1, ptr %6, align 4, !tbaa !9
  store i32 %2, ptr %7, align 4, !tbaa !9
  store ptr %3, ptr %8, align 8, !tbaa !44
  call void @llvm.lifetime.start.p0(i64 8, ptr %9) #13
  call void @llvm.lifetime.start.p0(i64 8, ptr %10) #13
  call void @llvm.lifetime.start.p0(i64 4, ptr %11) #13
  call void @llvm.lifetime.start.p0(i64 4, ptr %12) #13
  %13 = load i32, ptr %6, align 4, !tbaa !9
  %14 = call i32 @Abc_TtWordNum(i32 noundef %13)
  store i32 %14, ptr %12, align 4, !tbaa !9
  %15 = call ptr @Gia_ManStart(i32 noundef 1000)
  store ptr %15, ptr %9, align 8, !tbaa !94
  %16 = call ptr @Abc_UtilStrsav(ptr noundef @.str.13)
  %17 = load ptr, ptr %9, align 8, !tbaa !94
  %18 = getelementptr inbounds nuw %struct.Gia_Man_t_, ptr %17, i32 0, i32 0
  store ptr %16, ptr %18, align 8, !tbaa !102
  store i32 0, ptr %11, align 4, !tbaa !9
  br label %19

19:                                               ; preds = %26, %4
  %20 = load i32, ptr %11, align 4, !tbaa !9
  %21 = load i32, ptr %6, align 4, !tbaa !9
  %22 = icmp slt i32 %20, %21
  br i1 %22, label %23, label %29

23:                                               ; preds = %19
  %24 = load ptr, ptr %9, align 8, !tbaa !94
  %25 = call i32 @Gia_ManAppendCi(ptr noundef %24)
  br label %26

26:                                               ; preds = %23
  %27 = load i32, ptr %11, align 4, !tbaa !9
  %28 = add nsw i32 %27, 1
  store i32 %28, ptr %11, align 4, !tbaa !9
  br label %19, !llvm.loop !136

29:                                               ; preds = %19
  %30 = load ptr, ptr %9, align 8, !tbaa !94
  call void @Gia_ManHashAlloc(ptr noundef %30)
  store i32 0, ptr %11, align 4, !tbaa !9
  br label %31

31:                                               ; preds = %48, %29
  %32 = load i32, ptr %11, align 4, !tbaa !9
  %33 = load i32, ptr %7, align 4, !tbaa !9
  %34 = icmp slt i32 %32, %33
  br i1 %34, label %35, label %51

35:                                               ; preds = %31
  %36 = load ptr, ptr %9, align 8, !tbaa !94
  %37 = load ptr, ptr %9, align 8, !tbaa !94
  %38 = load ptr, ptr %5, align 8, !tbaa !12
  %39 = load i32, ptr %11, align 4, !tbaa !9
  %40 = load i32, ptr %12, align 4, !tbaa !9
  %41 = mul nsw i32 %39, %40
  %42 = sext i32 %41 to i64
  %43 = getelementptr inbounds i64, ptr %38, i64 %42
  %44 = load i32, ptr %6, align 4, !tbaa !9
  %45 = load ptr, ptr %8, align 8, !tbaa !44
  %46 = call i32 @Gia_ManBuildMuxes_rec(ptr noundef %37, ptr noundef %43, i32 noundef %44, ptr noundef %45)
  %47 = call i32 @Gia_ManAppendCo(ptr noundef %36, i32 noundef %46)
  br label %48

48:                                               ; preds = %35
  %49 = load i32, ptr %11, align 4, !tbaa !9
  %50 = add nsw i32 %49, 1
  store i32 %50, ptr %11, align 4, !tbaa !9
  br label %31, !llvm.loop !137

51:                                               ; preds = %31
  %52 = load ptr, ptr %9, align 8, !tbaa !94
  call void @Gia_ManHashStop(ptr noundef %52)
  %53 = load ptr, ptr %9, align 8, !tbaa !94
  store ptr %53, ptr %10, align 8, !tbaa !94
  %54 = call ptr @Gia_ManCleanup(ptr noundef %53)
  store ptr %54, ptr %9, align 8, !tbaa !94
  %55 = load ptr, ptr %10, align 8, !tbaa !94
  call void @Gia_ManStop(ptr noundef %55)
  %56 = load ptr, ptr %9, align 8, !tbaa !94
  call void @llvm.lifetime.end.p0(i64 4, ptr %12) #13
  call void @llvm.lifetime.end.p0(i64 4, ptr %11) #13
  call void @llvm.lifetime.end.p0(i64 8, ptr %10) #13
  call void @llvm.lifetime.end.p0(i64 8, ptr %9) #13
  ret ptr %56
}