; Function Attrs: nounwind uwtable
define ptr @Gia_ManBuildMuxesTest(ptr noundef %0, i32 noundef %1, i32 noundef %2, ptr noundef %3) local_unnamed_addr #0 {
  %5 = tail call ptr @Gia_ManStart(i32 noundef 1000) #24
  %6 = tail call noalias noundef dereferenceable_or_null(6) ptr @malloc(i64 noundef 6) #22
  tail call void @llvm.memcpy.p0.p0.i64(ptr noundef nonnull align 1 dereferenceable(6) %6, ptr noundef nonnull align 1 dereferenceable(6) @.str.13, i64 6, i1 false) #24
  store ptr %6, ptr %5, align 8, !tbaa !89
  %7 = icmp sgt i32 %1, 0
  br i1 %7, label %.lr.ph, label %._crit_edge

.lr.ph:                                           ; preds = %4, %.lr.ph
  %.021 = phi i32 [ %8, %.lr.ph ], [ 0, %4 ]
  tail call fastcc void @Gia_ManAppendCi(ptr noundef nonnull %5)
  %8 = add nuw nsw i32 %.021, 1
  %exitcond.not = icmp eq i32 %8, %1
  br i1 %exitcond.not, label %._crit_edge, label %.lr.ph, !llvm.loop !124

._crit_edge:                                      ; preds = %.lr.ph, %4
  tail call void @Gia_ManHashAlloc(ptr noundef nonnull %5) #24
  %9 = icmp sgt i32 %2, 0
  br i1 %9, label %.lr.ph24, label %._crit_edge25

.lr.ph24:                                         ; preds = %._crit_edge
  %10 = tail call i32 @llvm.smax.i32(i32 %1, i32 6)
  %11 = add nsw i32 %10, -6
  br label %12

12:                                               ; preds = %.lr.ph24, %12
  %.122 = phi i32 [ 0, %.lr.ph24 ], [ %17, %12 ]
  %13 = shl i32 %.122, %11
  %14 = sext i32 %13 to i64
  %15 = getelementptr inbounds i64, ptr %0, i64 %14
  %16 = tail call i32 @Gia_ManBuildMuxes_rec(ptr noundef nonnull %5, ptr noundef %15, i32 noundef %1, ptr noundef %3)
  tail call fastcc void @Gia_ManAppendCo(ptr noundef nonnull %5, i32 noundef %16)
  %17 = add nuw nsw i32 %.122, 1
  %exitcond26.not = icmp eq i32 %17, %2
  br i1 %exitcond26.not, label %._crit_edge25, label %12, !llvm.loop !125

._crit_edge25:                                    ; preds = %12, %._crit_edge
  tail call void @Gia_ManHashStop(ptr noundef nonnull %5) #24
  %18 = tail call ptr @Gia_ManCleanup(ptr noundef nonnull %5) #24
  tail call void @Gia_ManStop(ptr noundef nonnull %5) #24
  ret ptr %18
}